; Function Attrs: mustprogress nofree norecurse nosync nounwind willreturn memory(read, inaccessiblemem: none) uwtable
define hidden noundef ptr @_ZN17EdgeMoveOptimizer14instruction_atEi(ptr nocapture noundef nonnull readonly align 8 dereferenceable(48) %0, i32 noundef %1) local_unnamed_addr #6 align 2 {
  %3 = getelementptr inbounds i8, ptr %0, i64 8
  %4 = load ptr, ptr %3, align 8
  %5 = sext i32 %1 to i64
  %6 = getelementptr inbounds ptr, ptr %4, i64 %5
  %7 = load ptr, ptr %6, align 8
  %8 = getelementptr inbounds i8, ptr %0, i64 32
  %9 = load ptr, ptr %8, align 8
  %10 = getelementptr inbounds i32, ptr %9, i64 %5
  %11 = load i32, ptr %10, align 4
  %12 = load i32, ptr %7, align 4
  %13 = icmp slt i32 %11, %12
  br i1 %13, label %14, label %20

14:                                               ; preds = %2
  %15 = getelementptr inbounds i8, ptr %7, i64 8
  %16 = load ptr, ptr %15, align 8
  %17 = sext i32 %11 to i64
  %18 = getelementptr inbounds ptr, ptr %16, i64 %17
  %19 = load ptr, ptr %18, align 8
  br label %20

20:                                               ; preds = %2, %14
  %.0 = phi ptr [ %19, %14 ], [ null, %2 ]
  ret ptr %.0
}